; ModuleID = '20/57.c'
source_filename = "20/57.c"
target datalayout = "e-m:e-p270:32:32-p271:32:32-p272:64:64-i64:64-f80:128-n8:16:32:64-S128"
target triple = "x86_64-pc-linux-gnu"

@.str = private unnamed_addr constant [5 x i8] c"%s%s\00", align 1
@.str.1 = private unnamed_addr constant [3 x i8] c"%c\00", align 1
@.str.2 = private unnamed_addr constant [2 x i8] c"\0A\00", align 1

; Function Attrs: noinline nounwind uwtable
define dso_local void @main() #0 {
  %1 = alloca i32, align 4
  %2 = alloca i32, align 4
  %3 = alloca i32, align 4
  %4 = alloca i32, align 4
  %5 = alloca [15 x i8], align 1
  %6 = alloca [3 x i8], align 1
  br label %7

7:                                                ; preds = %95, %0
  %8 = getelementptr inbounds [15 x i8], [15 x i8]* %5, i64 0, i64 0
  %9 = getelementptr inbounds [3 x i8], [3 x i8]* %6, i64 0, i64 0
  %10 = call i32 (i8*, ...) @__isoc99_scanf(i8* getelementptr inbounds ([5 x i8], [5 x i8]* @.str, i64 0, i64 0), i8* %8, i8* %9)
  %11 = icmp ne i32 %10, -1
  br i1 %11, label %12, label %97

12:                                               ; preds = %7
  %13 = getelementptr inbounds [15 x i8], [15 x i8]* %5, i64 0, i64 0
  %14 = call i64 @strlen(i8* %13) #3
  %15 = trunc i64 %14 to i32
  store i32 %15, i32* %3, align 4
  store i32 0, i32* %4, align 4
  store i32 0, i32* %1, align 4
  br label %16

16:                                               ; preds = %35, %12
  %17 = load i32, i32* %1, align 4
  %18 = load i32, i32* %3, align 4
  %19 = icmp slt i32 %17, %18
  br i1 %19, label %20, label %38

20:                                               ; preds = %16
  %21 = load i32, i32* %4, align 4
  %22 = sext i32 %21 to i64
  %23 = getelementptr inbounds [15 x i8], [15 x i8]* %5, i64 0, i64 %22
  %24 = load i8, i8* %23, align 1
  %25 = sext i8 %24 to i32
  %26 = load i32, i32* %1, align 4
  %27 = sext i32 %26 to i64
  %28 = getelementptr inbounds [15 x i8], [15 x i8]* %5, i64 0, i64 %27
  %29 = load i8, i8* %28, align 1
  %30 = sext i8 %29 to i32
  %31 = icmp slt i32 %25, %30
  br i1 %31, label %32, label %34

32:                                               ; preds = %20
  %33 = load i32, i32* %1, align 4
  store i32 %33, i32* %4, align 4
  br label %34

34:                                               ; preds = %32, %20
  br label %35

35:                                               ; preds = %34
  %36 = load i32, i32* %1, align 4
  %37 = add nsw i32 %36, 1
  store i32 %37, i32* %1, align 4
  br label %16

38:                                               ; preds = %16
  %39 = load i32, i32* %3, align 4
  %40 = sub nsw i32 %39, 1
  store i32 %40, i32* %2, align 4
  br label %41

41:                                               ; preds = %54, %38
  %42 = load i32, i32* %2, align 4
  %43 = load i32, i32* %4, align 4
  %44 = icmp sgt i32 %42, %43
  br i1 %44, label %45, label %57

45:                                               ; preds = %41
  %46 = load i32, i32* %2, align 4
  %47 = sext i32 %46 to i64
  %48 = getelementptr inbounds [15 x i8], [15 x i8]* %5, i64 0, i64 %47
  %49 = load i8, i8* %48, align 1
  %50 = load i32, i32* %2, align 4
  %51 = add nsw i32 %50, 3
  %52 = sext i32 %51 to i64
  %53 = getelementptr inbounds [15 x i8], [15 x i8]* %5, i64 0, i64 %52
  store i8 %49, i8* %53, align 1
  br label %54

54:                                               ; preds = %45
  %55 = load i32, i32* %2, align 4
  %56 = add nsw i32 %55, -1
  store i32 %56, i32* %2, align 4
  br label %41

57:                                               ; preds = %41
  %58 = load i32, i32* %4, align 4
  %59 = add nsw i32 %58, 1
  store i32 %59, i32* %2, align 4
  br label %60

60:                                               ; preds = %76, %57
  %61 = load i32, i32* %2, align 4
  %62 = load i32, i32* %4, align 4
  %63 = add nsw i32 %62, 4
  %64 = icmp slt i32 %61, %63
  br i1 %64, label %65, label %79

65:                                               ; preds = %60
  %66 = load i32, i32* %2, align 4
  %67 = load i32, i32* %4, align 4
  %68 = sub nsw i32 %66, %67
  %69 = sub nsw i32 %68, 1
  %70 = sext i32 %69 to i64
  %71 = getelementptr inbounds [3 x i8], [3 x i8]* %6, i64 0, i64 %70
  %72 = load i8, i8* %71, align 1
  %73 = load i32, i32* %2, align 4
  %74 = sext i32 %73 to i64
  %75 = getelementptr inbounds [15 x i8], [15 x i8]* %5, i64 0, i64 %74
  store i8 %72, i8* %75, align 1
  br label %76

76:                                               ; preds = %65
  %77 = load i32, i32* %2, align 4
  %78 = add nsw i32 %77, 1
  store i32 %78, i32* %2, align 4
  br label %60

79:                                               ; preds = %60
  store i32 0, i32* %2, align 4
  br label %80

80:                                               ; preds = %92, %79
  %81 = load i32, i32* %2, align 4
  %82 = load i32, i32* %3, align 4
  %83 = add nsw i32 %82, 3
  %84 = icmp slt i32 %81, %83
  br i1 %84, label %85, label %95

85:                                               ; preds = %80
  %86 = load i32, i32* %2, align 4
  %87 = sext i32 %86 to i64
  %88 = getelementptr inbounds [15 x i8], [15 x i8]* %5, i64 0, i64 %87
  %89 = load i8, i8* %88, align 1
  %90 = sext i8 %89 to i32
  %91 = call i32 (i8*, ...) @printf(i8* getelementptr inbounds ([3 x i8], [3 x i8]* @.str.1, i64 0, i64 0), i32 %90)
  br label %92

92:                                               ; preds = %85
  %93 = load i32, i32* %2, align 4
  %94 = add nsw i32 %93, 1
  store i32 %94, i32* %2, align 4
  br label %80

95:                                               ; preds = %80
  %96 = call i32 (i8*, ...) @printf(i8* getelementptr inbounds ([2 x i8], [2 x i8]* @.str.2, i64 0, i64 0))
  br label %7

97:                                               ; preds = %7
  ret void
}

declare dso_local i32 @__isoc99_scanf(i8*, ...) #1

; Function Attrs: nounwind readonly
declare dso_local i64 @strlen(i8*) #2

declare dso_local i32 @printf(i8*, ...) #1


!llvm.module.flags = !{!0}
!llvm.ident = !{!1}

!0 = !{i32 1, !"wchar_size", i32 4}
!1 = !{!"clang version 10.0.0-4ubuntu1 "}
